; Function Attrs: nounwind uwtable
define void @Ssw_ManCleanup(ptr noundef captures(none) initializes((256, 264)) %0) local_unnamed_addr #0 {
  %2 = getelementptr inbounds nuw i8, ptr %0, i64 24
  %3 = load ptr, ptr %2, align 8, !tbaa !96
  %.not = icmp eq ptr %3, null
  br i1 %.not, label %18, label %4

4:                                                ; preds = %1
  tail call void @Aig_ManCleanMarkAB(ptr noundef nonnull %3) #12
  %5 = load ptr, ptr %2, align 8, !tbaa !96
  tail call void @Aig_ManStop(ptr noundef %5) #12
  store ptr null, ptr %2, align 8, !tbaa !96
  %6 = getelementptr inbounds nuw i8, ptr %0, i64 32
  %7 = load ptr, ptr %6, align 8, !tbaa !33
  %8 = getelementptr inbounds nuw i8, ptr %0, i64 16
  %9 = load ptr, ptr %8, align 8, !tbaa !19
  %10 = getelementptr i8, ptr %9, i64 32
  %.val = load ptr, ptr %10, align 8, !tbaa !23
  %11 = getelementptr i8, ptr %.val, i64 4
  %.val.val = load i32, ptr %11, align 4, !tbaa !31
  %12 = sext i32 %.val.val to i64
  %13 = shl nsw i64 %12, 3
  %14 = getelementptr inbounds nuw i8, ptr %0, i64 8
  %15 = load i32, ptr %14, align 8, !tbaa !22
  %16 = sext i32 %15 to i64
  %17 = mul i64 %13, %16
  tail call void @llvm.memset.p0.i64(ptr align 8 %7, i8 0, i64 %17, i1 false)
  br label %18

18:                                               ; preds = %4, %1
  %19 = getelementptr inbounds nuw i8, ptr %0, i64 72
  %20 = load ptr, ptr %19, align 8, !tbaa !97
  %.not13 = icmp eq ptr %20, null
  br i1 %.not13, label %25, label %21

21:                                               ; preds = %18
  %22 = getelementptr inbounds nuw i8, ptr %20, i64 8
  %23 = load ptr, ptr %22, align 8, !tbaa !35
  %.not.i = icmp eq ptr %23, null
  br i1 %.not.i, label %Vec_PtrFree.exit, label %24

24:                                               ; preds = %21
  tail call void @free(ptr noundef nonnull %23) #12
  br label %Vec_PtrFree.exit

Vec_PtrFree.exit:                                 ; preds = %21, %24
  tail call void @free(ptr noundef nonnull %20) #12
  store ptr null, ptr %19, align 8, !tbaa !97
  br label %25

25:                                               ; preds = %Vec_PtrFree.exit, %18
  %26 = getelementptr inbounds nuw i8, ptr %0, i64 256
  store i32 0, ptr %26, align 8, !tbaa !98
  %27 = getelementptr inbounds nuw i8, ptr %0, i64 260
  store i32 0, ptr %27, align 4, !tbaa !99
  ret void
}